; Function Attrs: mustprogress uwtable
define hidden noundef ptr @_ZN8seq_util9mk_skolemERK6symboljPKP4exprP4sort(ptr noundef nonnull readonly align 8 captures(none) dereferenceable(136) %0, ptr noundef nonnull readonly align 8 captures(none) dereferenceable(8) %1, i32 noundef %2, ptr noundef %3, ptr noundef %4) local_unnamed_addr #3 align 2 personality ptr @__gxx_personality_v0 {
  %6 = alloca %class.parameter, align 8
  call void @llvm.lifetime.start.p0(i64 16, ptr nonnull %6) #26
  %7 = load i64, ptr %1, align 8, !tbaa !58
  store i64 %7, ptr %6, align 8, !tbaa !58
  %8 = getelementptr inbounds nuw i8, ptr %6, i64 8
  store i8 2, ptr %8, align 8, !tbaa !50
  %9 = load ptr, ptr %0, align 8, !tbaa !213
  %10 = getelementptr inbounds nuw i8, ptr %0, i64 24
  %11 = load i32, ptr %10, align 8, !tbaa !195
  %12 = invoke noundef ptr @_ZN11ast_manager12mk_func_declEiijPK9parameterjPKP4exprP4sort(ptr noundef nonnull align 8 dereferenceable(976) %9, i32 noundef %11, i32 noundef 67, i32 noundef 1, ptr noundef nonnull %6, i32 noundef %2, ptr noundef %3, ptr noundef %4)
          to label %13 unwind label %17

13:                                               ; preds = %5
  %14 = load ptr, ptr %0, align 8, !tbaa !213
  %15 = invoke noundef ptr @_ZN11ast_manager6mk_appEP9func_decljPKP4expr(ptr noundef nonnull align 8 dereferenceable(976) %14, ptr noundef %12, i32 noundef %2, ptr noundef %3)
          to label %16 unwind label %17

16:                                               ; preds = %13
  call void @_ZN9parameterD1Ev(ptr noundef nonnull align 8 dereferenceable(16) %6) #26
  call void @llvm.lifetime.end.p0(i64 16, ptr nonnull %6) #26
  ret ptr %15

17:                                               ; preds = %13, %5
  %18 = landingpad { ptr, i32 }
          cleanup
  call void @_ZN9parameterD1Ev(ptr noundef nonnull align 8 dereferenceable(16) %6) #26
  call void @llvm.lifetime.end.p0(i64 16, ptr nonnull %6) #26
  resume { ptr, i32 } %18
}